ccopy_reg
_reconstructor
p0
(cgoogle.oauth2.credentials
Credentials
p1
c__builtin__
object
p2
Ntp3
Rp4
(dp5
S'_token_uri'
p6
Vhttps://oauth2.googleapis.com/token
p7
sS'_scopes'
p8
(lp9
S'https://www.googleapis.com/auth/spreadsheets'
p10
asS'_id_token'
p11
NsS'token'
p12
Vya29.GlzYBoK4-DeYtju5mWCzx07fjm1CsCJ9e-ywwE1K4kWAnN9fechj_MQcqpVwuBbyne_sUG3kIHHS6pUnr69XwXbMGtQ3VWC9CDTIWosRMbK_bgq1jA46xiOGZZlfnw
p13
sS'_refresh_token'
p14
V1/8plh5nNIpdo_dP2_F-sTypmnlz9l-4NuToQ_MuGG1Vo
p15
sS'_client_secret'
p16
VAs0xlcY7yyppeVsifEeT_yIy
p17
sS'_client_id'
p18
V223732953982-pmjomkrdigrtbju7a2e66b8l2dp82drt.apps.googleusercontent.com
p19
sS'expiry'
p20
cdatetime
datetime
p21
(S'\x07\xe3\x03\x1a\x04\x12\x15\x08\x13_'
p22
tp23
Rp24
sb.